; ModuleID = '5/905.c'
source_filename = "5/905.c"
target datalayout = "e-m:e-p270:32:32-p271:32:32-p272:64:64-i64:64-f80:128-n8:16:32:64-S128"
target triple = "x86_64-pc-linux-gnu"

@.str = private unnamed_addr constant [4 x i8] c"%lf\00", align 1
@.str.1 = private unnamed_addr constant [3 x i8] c"%s\00", align 1
@.str.2 = private unnamed_addr constant [3 x i8] c"no\00", align 1
@.str.3 = private unnamed_addr constant [4 x i8] c"yes\00", align 1
@.str.4 = private unnamed_addr constant [6 x i8] c"error\00", align 1

; Function Attrs: noinline nounwind uwtable
define dso_local i32 @main() #0 {
  %1 = alloca i32, align 4
  %2 = alloca double, align 8
  %3 = alloca [500 x i8], align 16
  %4 = alloca [500 x i8], align 16
  %5 = alloca i32, align 4
  %6 = alloca i32, align 4
  %7 = alloca double, align 8
  %8 = alloca double, align 8
  %9 = alloca double, align 8
  %10 = alloca double, align 8
  store i32 0, i32* %1, align 4
  %11 = call i32 (i8*, ...) @__isoc99_scanf(i8* getelementptr inbounds ([4 x i8], [4 x i8]* @.str, i64 0, i64 0), double* %2)
  %12 = getelementptr inbounds [500 x i8], [500 x i8]* %3, i64 0, i64 0
  %13 = call i32 (i8*, ...) @__isoc99_scanf(i8* getelementptr inbounds ([3 x i8], [3 x i8]* @.str.1, i64 0, i64 0), i8* %12)
  %14 = getelementptr inbounds [500 x i8], [500 x i8]* %4, i64 0, i64 0
  %15 = call i32 (i8*, ...) @__isoc99_scanf(i8* getelementptr inbounds ([3 x i8], [3 x i8]* @.str.1, i64 0, i64 0), i8* %14)
  store i32 0, i32* %6, align 4
  %16 = getelementptr inbounds [500 x i8], [500 x i8]* %3, i64 0, i64 0
  %17 = call i64 @strlen(i8* %16) #3
  %18 = uitofp i64 %17 to double
  store double %18, double* %8, align 8
  %19 = getelementptr inbounds [500 x i8], [500 x i8]* %4, i64 0, i64 0
  %20 = call i64 @strlen(i8* %19) #3
  %21 = uitofp i64 %20 to double
  store double %21, double* %10, align 8
  %22 = load double, double* %8, align 8
  %23 = load double, double* %10, align 8
  %24 = fcmp oeq double %22, %23
  br i1 %24, label %25, label %138

25:                                               ; preds = %0
  store i32 0, i32* %5, align 4
  br label %26

26:                                               ; preds = %92, %25
  %27 = load i32, i32* %5, align 4
  %28 = sitofp i32 %27 to double
  %29 = load double, double* %8, align 8
  %30 = fcmp olt double %28, %29
  br i1 %30, label %31, label %95

31:                                               ; preds = %26
  %32 = load i32, i32* %5, align 4
  %33 = sext i32 %32 to i64
  %34 = getelementptr inbounds [500 x i8], [500 x i8]* %3, i64 0, i64 %33
  %35 = load i8, i8* %34, align 1
  %36 = sext i8 %35 to i32
  %37 = icmp eq i32 %36, 65
  br i1 %37, label %59, label %38

38:                                               ; preds = %31
  %39 = load i32, i32* %5, align 4
  %40 = sext i32 %39 to i64
  %41 = getelementptr inbounds [500 x i8], [500 x i8]* %3, i64 0, i64 %40
  %42 = load i8, i8* %41, align 1
  %43 = sext i8 %42 to i32
  %44 = icmp eq i32 %43, 84
  br i1 %44, label %59, label %45

45:                                               ; preds = %38
  %46 = load i32, i32* %5, align 4
  %47 = sext i32 %46 to i64
  %48 = getelementptr inbounds [500 x i8], [500 x i8]* %3, i64 0, i64 %47
  %49 = load i8, i8* %48, align 1
  %50 = sext i8 %49 to i32
  %51 = icmp eq i32 %50, 67
  br i1 %51, label %59, label %52

52:                                               ; preds = %45
  %53 = load i32, i32* %5, align 4
  %54 = sext i32 %53 to i64
  %55 = getelementptr inbounds [500 x i8], [500 x i8]* %3, i64 0, i64 %54
  %56 = load i8, i8* %55, align 1
  %57 = sext i8 %56 to i32
  %58 = icmp eq i32 %57, 71
  br i1 %58, label %59, label %60

59:                                               ; preds = %52, %45, %38, %31
  store i32 1, i32* %6, align 4
  br label %61

60:                                               ; preds = %52
  store i32 0, i32* %6, align 4
  br label %95

61:                                               ; preds = %59
  %62 = load i32, i32* %5, align 4
  %63 = sext i32 %62 to i64
  %64 = getelementptr inbounds [500 x i8], [500 x i8]* %4, i64 0, i64 %63
  %65 = load i8, i8* %64, align 1
  %66 = sext i8 %65 to i32
  %67 = icmp eq i32 %66, 65
  br i1 %67, label %89, label %68

68:                                               ; preds = %61
  %69 = load i32, i32* %5, align 4
  %70 = sext i32 %69 to i64
  %71 = getelementptr inbounds [500 x i8], [500 x i8]* %4, i64 0, i64 %70
  %72 = load i8, i8* %71, align 1
  %73 = sext i8 %72 to i32
  %74 = icmp eq i32 %73, 84
  br i1 %74, label %89, label %75

75:                                               ; preds = %68
  %76 = load i32, i32* %5, align 4
  %77 = sext i32 %76 to i64
  %78 = getelementptr inbounds [500 x i8], [500 x i8]* %4, i64 0, i64 %77
  %79 = load i8, i8* %78, align 1
  %80 = sext i8 %79 to i32
  %81 = icmp eq i32 %80, 67
  br i1 %81, label %89, label %82

82:                                               ; preds = %75
  %83 = load i32, i32* %5, align 4
  %84 = sext i32 %83 to i64
  %85 = getelementptr inbounds [500 x i8], [500 x i8]* %4, i64 0, i64 %84
  %86 = load i8, i8* %85, align 1
  %87 = sext i8 %86 to i32
  %88 = icmp eq i32 %87, 71
  br i1 %88, label %89, label %90

89:                                               ; preds = %82, %75, %68, %61
  store i32 1, i32* %6, align 4
  br label %91

90:                                               ; preds = %82
  store i32 0, i32* %6, align 4
  br label %95

91:                                               ; preds = %89
  br label %92

92:                                               ; preds = %91
  %93 = load i32, i32* %5, align 4
  %94 = add nsw i32 %93, 1
  store i32 %94, i32* %5, align 4
  br label %26

95:                                               ; preds = %90, %60, %26
  %96 = load i32, i32* %6, align 4
  %97 = icmp eq i32 %96, 1
  br i1 %97, label %98, label %135

98:                                               ; preds = %95
  store double 0.000000e+00, double* %7, align 8
  store i32 0, i32* %5, align 4
  br label %99

99:                                               ; preds = %120, %98
  %100 = load i32, i32* %5, align 4
  %101 = sitofp i32 %100 to double
  %102 = load double, double* %8, align 8
  %103 = fcmp olt double %101, %102
  br i1 %103, label %104, label %123

104:                                              ; preds = %99
  %105 = load i32, i32* %5, align 4
  %106 = sext i32 %105 to i64
  %107 = getelementptr inbounds [500 x i8], [500 x i8]* %3, i64 0, i64 %106
  %108 = load i8, i8* %107, align 1
  %109 = sext i8 %108 to i32
  %110 = load i32, i32* %5, align 4
  %111 = sext i32 %110 to i64
  %112 = getelementptr inbounds [500 x i8], [500 x i8]* %4, i64 0, i64 %111
  %113 = load i8, i8* %112, align 1
  %114 = sext i8 %113 to i32
  %115 = icmp eq i32 %109, %114
  br i1 %115, label %116, label %119

116:                                              ; preds = %104
  %117 = load double, double* %7, align 8
  %118 = fadd double %117, 1.000000e+00
  store double %118, double* %7, align 8
  br label %119

119:                                              ; preds = %116, %104
  br label %120

120:                                              ; preds = %119
  %121 = load i32, i32* %5, align 4
  %122 = add nsw i32 %121, 1
  store i32 %122, i32* %5, align 4
  br label %99

123:                                              ; preds = %99
  %124 = load double, double* %7, align 8
  %125 = load double, double* %8, align 8
  %126 = fdiv double %124, %125
  store double %126, double* %9, align 8
  %127 = load double, double* %9, align 8
  %128 = load double, double* %2, align 8
  %129 = fcmp ole double %127, %128
  br i1 %129, label %130, label %132

130:                                              ; preds = %123
  %131 = call i32 (i8*, ...) @printf(i8* getelementptr inbounds ([3 x i8], [3 x i8]* @.str.2, i64 0, i64 0))
  br label %134

132:                                              ; preds = %123
  %133 = call i32 (i8*, ...) @printf(i8* getelementptr inbounds ([4 x i8], [4 x i8]* @.str.3, i64 0, i64 0))
  br label %134

134:                                              ; preds = %132, %130
  br label %137

135:                                              ; preds = %95
  %136 = call i32 (i8*, ...) @printf(i8* getelementptr inbounds ([6 x i8], [6 x i8]* @.str.4, i64 0, i64 0))
  br label %137

137:                                              ; preds = %135, %134
  br label %140

138:                                              ; preds = %0
  %139 = call i32 (i8*, ...) @printf(i8* getelementptr inbounds ([6 x i8], [6 x i8]* @.str.4, i64 0, i64 0))
  br label %140

140:                                              ; preds = %138, %137
  ret i32 0
}

declare dso_local i32 @__isoc99_scanf(i8*, ...) #1

; Function Attrs: nounwind readonly
declare dso_local i64 @strlen(i8*) #2

declare dso_local i32 @printf(i8*, ...) #1


!llvm.module.flags = !{!0}
!llvm.ident = !{!1}

!0 = !{i32 1, !"wchar_size", i32 4}
!1 = !{!"clang version 10.0.0-4ubuntu1 "}
